target datalayout = "e-m:e-p270:32:32-p271:32:32-p272:64:64-i64:64-i128:128-f80:128-n8:16:32:64-S128"
target triple = "x86_64-pc-linux-gnu"

%struct.tls_buffer_st = type { ptr, i64, i64, i64, i64, i32, i32 }
%struct.tls_rl_record_st = type { i32, i32, i64, i64, i64, ptr, ptr, ptr, i16, [8 x i8] }
%struct.ossl_record_layer_st = type { ptr, ptr, i32, i32, i32, i32, i32, ptr, i16, ptr, ptr, ptr, i64, i32, [33 x %struct.tls_buffer_st], i64, i64, %struct.tls_buffer_st, [32 x %struct.tls_rl_record_st], i64, i64, i64, i32, ptr, i64, [8 x i8], i32, i32, i64, i32, ptr, ptr, i64, ptr, ptr, i32, i32, i32, i64, i64, i64, [64 x i8], i32, i32, i32, ptr, ptr, i32, i32, i64, ptr, ptr, %struct.dtls_bitmap_st, %struct.dtls_bitmap_st, i32, ptr, ptr, ptr, ptr, ptr, i64, ptr }
%struct.dtls_bitmap_st = type { i64, [8 x i8] }

@.str = private unnamed_addr constant [43 x i8] c"../openssl/ssl/record/methods/tls_common.c\00", align 1
@__func__.tls_setup_read_buffer = private unnamed_addr constant [22 x i8] c"tls_setup_read_buffer\00", align 1

; Function Attrs: nounwind uwtable
define internal i32 @tls_allow_compression(ptr noundef %0) #0 {
  %2 = alloca i32, align 4
  %3 = alloca ptr, align 8
  store ptr %0, ptr %3, align 8, !tbaa !16
  %4 = load ptr, ptr %3, align 8, !tbaa !16
  %5 = getelementptr inbounds nuw %struct.ossl_record_layer_st, ptr %4, i32 0, i32 12
  %6 = load i64, ptr %5, align 8, !tbaa !47
  %7 = and i64 %6, 131072
  %8 = icmp ne i64 %7, 0
  br i1 %8, label %9, label %10

9:                                                ; preds = %1
  store i32 0, ptr %2, align 4
  br label %27

10:                                               ; preds = %1
  %11 = load ptr, ptr %3, align 8, !tbaa !16
  %12 = getelementptr inbounds nuw %struct.ossl_record_layer_st, ptr %11, i32 0, i32 58
  %13 = load ptr, ptr %12, align 8, !tbaa !52
  %14 = icmp eq ptr %13, null
  br i1 %14, label %24, label %15

15:                                               ; preds = %10
  %16 = load ptr, ptr %3, align 8, !tbaa !16
  %17 = getelementptr inbounds nuw %struct.ossl_record_layer_st, ptr %16, i32 0, i32 58
  %18 = load ptr, ptr %17, align 8, !tbaa !52
  %19 = load ptr, ptr %3, align 8, !tbaa !16
  %20 = getelementptr inbounds nuw %struct.ossl_record_layer_st, ptr %19, i32 0, i32 55
  %21 = load ptr, ptr %20, align 8, !tbaa !53
  %22 = call i32 %18(ptr noundef %21, i32 noundef 15, i32 noundef 0, i32 noundef 0, ptr noundef null)
  %23 = icmp ne i32 %22, 0
  br label %24

24:                                               ; preds = %15, %10
  %25 = phi i1 [ true, %10 ], [ %23, %15 ]
  %26 = zext i1 %25 to i32
  store i32 %26, ptr %2, align 4
  br label %27

27:                                               ; preds = %24, %9
  %28 = load i32, ptr %2, align 4
  ret i32 %28
}

; Function Attrs: nounwind uwtable
define i32 @tls_setup_read_buffer(ptr noundef %0) #0 {
  %2 = alloca i32, align 4
  %3 = alloca ptr, align 8
  %4 = alloca ptr, align 8
  %5 = alloca i64, align 8
  %6 = alloca i64, align 8
  %7 = alloca i64, align 8
  %8 = alloca ptr, align 8
  %9 = alloca i32, align 4
  store ptr %0, ptr %3, align 8, !tbaa !16
  call void @llvm.lifetime.start.p0(i64 8, ptr %4) #10
  call void @llvm.lifetime.start.p0(i64 8, ptr %5) #10
  call void @llvm.lifetime.start.p0(i64 8, ptr %6) #10
  store i64 0, ptr %6, align 8, !tbaa !38
  call void @llvm.lifetime.start.p0(i64 8, ptr %7) #10
  call void @llvm.lifetime.start.p0(i64 8, ptr %8) #10
  %10 = load ptr, ptr %3, align 8, !tbaa !16
  %11 = getelementptr inbounds nuw %struct.ossl_record_layer_st, ptr %10, i32 0, i32 17
  store ptr %11, ptr %8, align 8, !tbaa !3
  %12 = load ptr, ptr %3, align 8, !tbaa !16
  %13 = getelementptr inbounds nuw %struct.ossl_record_layer_st, ptr %12, i32 0, i32 2
  %14 = load i32, ptr %13, align 8, !tbaa !43
  %15 = icmp ne i32 %14, 0
  br i1 %15, label %16, label %17

16:                                               ; preds = %1
  store i64 13, ptr %7, align 8, !tbaa !38
  br label %18

17:                                               ; preds = %1
  store i64 5, ptr %7, align 8, !tbaa !38
  br label %18

18:                                               ; preds = %17, %16
  store i64 7, ptr %6, align 8, !tbaa !38
  %19 = load ptr, ptr %8, align 8, !tbaa !3
  %20 = getelementptr inbounds nuw %struct.tls_buffer_st, ptr %19, i32 0, i32 0
  %21 = load ptr, ptr %20, align 8, !tbaa !8
  %22 = icmp eq ptr %21, null
  br i1 %22, label %23, label %73

23:                                               ; preds = %18
  %24 = load ptr, ptr %3, align 8, !tbaa !16
  %25 = getelementptr inbounds nuw %struct.ossl_record_layer_st, ptr %24, i32 0, i32 36
  %26 = load i32, ptr %25, align 4, !tbaa !46
  %27 = add i32 %26, 320
  %28 = zext i32 %27 to i64
  %29 = load i64, ptr %7, align 8, !tbaa !38
  %30 = add i64 %28, %29
  %31 = load i64, ptr %6, align 8, !tbaa !38
  %32 = add i64 %30, %31
  store i64 %32, ptr %5, align 8, !tbaa !38
  %33 = load ptr, ptr %3, align 8, !tbaa !16
  %34 = call i32 @tls_allow_compression(ptr noundef %33)
  %35 = icmp ne i32 %34, 0
  br i1 %35, label %36, label %39

36:                                               ; preds = %23
  %37 = load i64, ptr %5, align 8, !tbaa !38
  %38 = add i64 %37, 1024
  store i64 %38, ptr %5, align 8, !tbaa !38
  br label %39

39:                                               ; preds = %36, %23
  %40 = load ptr, ptr %3, align 8, !tbaa !16
  %41 = getelementptr inbounds nuw %struct.ossl_record_layer_st, ptr %40, i32 0, i32 60
  %42 = load i64, ptr %41, align 8, !tbaa !56
  %43 = icmp ugt i64 %42, 1
  br i1 %43, label %44, label %50

44:                                               ; preds = %39
  %45 = load ptr, ptr %3, align 8, !tbaa !16
  %46 = getelementptr inbounds nuw %struct.ossl_record_layer_st, ptr %45, i32 0, i32 60
  %47 = load i64, ptr %46, align 8, !tbaa !56
  %48 = load i64, ptr %5, align 8, !tbaa !38
  %49 = mul i64 %48, %47
  store i64 %49, ptr %5, align 8, !tbaa !38
  br label %50

50:                                               ; preds = %44, %39
  %51 = load ptr, ptr %8, align 8, !tbaa !3
  %52 = getelementptr inbounds nuw %struct.tls_buffer_st, ptr %51, i32 0, i32 1
  %53 = load i64, ptr %52, align 8, !tbaa !57
  %54 = load i64, ptr %5, align 8, !tbaa !38
  %55 = icmp ugt i64 %53, %54
  br i1 %55, label %56, label %60

56:                                               ; preds = %50
  %57 = load ptr, ptr %8, align 8, !tbaa !3
  %58 = getelementptr inbounds nuw %struct.tls_buffer_st, ptr %57, i32 0, i32 1
  %59 = load i64, ptr %58, align 8, !tbaa !57
  store i64 %59, ptr %5, align 8, !tbaa !38
  br label %60

60:                                               ; preds = %56, %50
  %61 = load i64, ptr %5, align 8, !tbaa !38
  %62 = call noalias ptr @CRYPTO_malloc(i64 noundef %61, ptr noundef @.str, i32 noundef 261)
  store ptr %62, ptr %4, align 8, !tbaa !15
  %63 = icmp eq ptr %62, null
  br i1 %63, label %64, label %66

64:                                               ; preds = %60
  call void @ERR_new()
  call void @ERR_set_debug(ptr noundef @.str, i32 noundef 267, ptr noundef @__func__.tls_setup_read_buffer)
  %65 = load ptr, ptr %3, align 8, !tbaa !16
  call void (ptr, i32, i32, ptr, ...) @ossl_rlayer_fatal(ptr noundef %65, i32 noundef -1, i32 noundef 524303, ptr noundef null)
  store i32 0, ptr %2, align 4
  store i32 1, ptr %9, align 4
  br label %74

66:                                               ; preds = %60
  %67 = load ptr, ptr %4, align 8, !tbaa !15
  %68 = load ptr, ptr %8, align 8, !tbaa !3
  %69 = getelementptr inbounds nuw %struct.tls_buffer_st, ptr %68, i32 0, i32 0
  store ptr %67, ptr %69, align 8, !tbaa !8
  %70 = load i64, ptr %5, align 8, !tbaa !38
  %71 = load ptr, ptr %8, align 8, !tbaa !3
  %72 = getelementptr inbounds nuw %struct.tls_buffer_st, ptr %71, i32 0, i32 2
  store i64 %70, ptr %72, align 8, !tbaa !48
  br label %73

73:                                               ; preds = %66, %18
  store i32 1, ptr %2, align 4
  store i32 1, ptr %9, align 4
  br label %74

74:                                               ; preds = %73, %64
  call void @llvm.lifetime.end.p0(i64 8, ptr %8) #10
  call void @llvm.lifetime.end.p0(i64 8, ptr %7) #10
  call void @llvm.lifetime.end.p0(i64 8, ptr %6) #10
  call void @llvm.lifetime.end.p0(i64 8, ptr %5) #10
  call void @llvm.lifetime.end.p0(i64 8, ptr %4) #10
  %75 = load i32, ptr %2, align 4
  ret i32 %75
}