; Function Attrs: nounwind uwtable
define range(i32 0, 2) i32 @tls_setup_read_buffer(ptr noundef captures(none) %0) local_unnamed_addr #0 {
  %2 = getelementptr inbounds nuw i8, ptr %0, i64 1696
  %3 = load ptr, ptr %2, align 8, !tbaa !3
  %4 = icmp eq ptr %3, null
  br i1 %4, label %5, label %38

5:                                                ; preds = %1
  %6 = getelementptr inbounds nuw i8, ptr %0, i64 16
  %7 = load i32, ptr %6, align 8, !tbaa !30
  %.not = icmp eq i32 %7, 0
  %. = select i1 %.not, i64 5, i64 13
  %8 = getelementptr inbounds nuw i8, ptr %0, i64 4172
  %9 = load i32, ptr %8, align 4, !tbaa !33
  %10 = add i32 %9, 320
  %11 = zext i32 %10 to i64
  %12 = add nuw nsw i64 %., %11
  %13 = add nuw nsw i64 %12, 7
  %14 = getelementptr inbounds nuw i8, ptr %0, i64 80
  %15 = load i64, ptr %14, align 8, !tbaa !34
  %16 = and i64 %15, 131072
  %.not.i = icmp eq i64 %16, 0
  br i1 %.not.i, label %17, label %tls_allow_compression.exit.thread

17:                                               ; preds = %5
  %18 = getelementptr inbounds nuw i8, ptr %0, i64 4400
  %19 = load ptr, ptr %18, align 8, !tbaa !35
  %20 = icmp eq ptr %19, null
  br i1 %20, label %tls_allow_compression.exit.thread29, label %tls_allow_compression.exit

tls_allow_compression.exit.thread29:              ; preds = %17
  %21 = add nuw nsw i64 %12, 1031
  br label %26

tls_allow_compression.exit:                       ; preds = %17
  %22 = getelementptr inbounds nuw i8, ptr %0, i64 4376
  %23 = load ptr, ptr %22, align 8, !tbaa !36
  %24 = tail call i32 %19(ptr noundef %23, i32 noundef 15, i32 noundef 0, i32 noundef 0, ptr noundef null) #13
  %.fr = freeze i32 %24
  %.not33 = icmp eq i32 %.fr, 0
  %25 = add nuw nsw i64 %12, 1031
  br i1 %.not33, label %tls_allow_compression.exit.thread, label %26

tls_allow_compression.exit.thread:                ; preds = %5, %tls_allow_compression.exit
  br label %26

26:                                               ; preds = %tls_allow_compression.exit.thread29, %tls_allow_compression.exit, %tls_allow_compression.exit.thread
  %27 = phi i64 [ %13, %tls_allow_compression.exit.thread ], [ %25, %tls_allow_compression.exit ], [ %21, %tls_allow_compression.exit.thread29 ]
  %28 = getelementptr inbounds nuw i8, ptr %0, i64 4416
  %29 = load i64, ptr %28, align 8, !tbaa !43
  %30 = tail call i64 @llvm.umax.i64(i64 %29, i64 1)
  %.1 = mul i64 %30, %27
  %31 = getelementptr inbounds nuw i8, ptr %0, i64 1704
  %32 = load i64, ptr %31, align 8, !tbaa !44
  %.2 = tail call i64 @llvm.umax.i64(i64 %32, i64 %.1)
  %33 = tail call noalias ptr @CRYPTO_malloc(i64 noundef %.2, ptr noundef nonnull @.str, i32 noundef 261) #13
  %34 = icmp eq ptr %33, null
  br i1 %34, label %35, label %36

35:                                               ; preds = %26
  tail call void @ERR_new() #13
  tail call void @ERR_set_debug(ptr noundef nonnull @.str, i32 noundef 267, ptr noundef nonnull @__func__.tls_setup_read_buffer) #13
  tail call void (ptr, i32, i32, ptr, ...) @ossl_rlayer_fatal(ptr noundef nonnull %0, i32 noundef -1, i32 noundef 524303, ptr noundef null)
  br label %38

36:                                               ; preds = %26
  store ptr %33, ptr %2, align 8, !tbaa !3
  %37 = getelementptr inbounds nuw i8, ptr %0, i64 1712
  store i64 %.2, ptr %37, align 8, !tbaa !37
  br label %38

38:                                               ; preds = %1, %36, %35
  %.0 = phi i32 [ 0, %35 ], [ 1, %36 ], [ 1, %1 ]
  ret i32 %.0
}